target datalayout = "e-m:e-p270:32:32-p271:32:32-p272:64:64-i64:64-i128:128-f80:128-n8:16:32:64-S128"
target triple = "x86_64-pc-linux-gnu"

%struct.VHeader_ = type { i32, i32, [0 x i8] }
%struct.Decl_ = type { ptr, ptr, %union.SourceSpan, i64, %union.anon, i32, %union.anon.0, i64, ptr, ptr, ptr, %union.anon.1 }
%union.SourceSpan = type { i64 }
%union.anon = type { ptr }
%union.anon.0 = type { i16 }
%union.anon.1 = type { %struct.FuncDecl }
%struct.FuncDecl = type { i32, [4 x i8], %struct.Signature_, i32, i32, %union.anon.8 }
%struct.Signature_ = type <{ %struct.CalleeAttributes, i16, i8, i32, i32, [4 x i8], ptr }>
%struct.CalleeAttributes = type { i8 }
%union.anon.8 = type { %struct.anon.9 }
%struct.anon.9 = type { i16, %union.anon.10 }
%union.anon.10 = type { ptr }
%struct.anon.2 = type { ptr, ptr, %union.anon.3 }
%union.anon.3 = type { %struct.BitStructDecl }
%struct.BitStructDecl = type { ptr, ptr, i8 }
%struct.StructDecl = type { i32, ptr, i32, i16 }
%struct.Type_ = type { i32, ptr, ptr, ptr, %union.anon.86, ptr, ptr, %union.anon.88 }
%union.anon.86 = type { ptr }
%union.anon.88 = type { %struct.TypeFunction }
%struct.TypeFunction = type { ptr, ptr, ptr }
%struct.TypeArray = type { ptr, i32 }

@.str = private unnamed_addr constant [36 x i8] c"FATAL ERROR %s -> in %s @ in %s:%d \00", align 1
@.str.1 = private unnamed_addr constant [22 x i8] c"Should be unreachable\00", align 1
@.str.2 = private unnamed_addr constant [108 x i8] c"generated/home/dtcxzyw/WorkSpace/Projects/compilers/llvm-opt-benchmark/bench/c3c/c3c/src/compiler/headers.c\00", align 1
@.str.23 = private unnamed_addr constant [4 x i8] c"};\0A\00", align 1
@.str.25 = private unnamed_addr constant [6 x i8] c" %s;\0A\00", align 1
@.str.27 = private unnamed_addr constant [25 x i8] c"typedef struct %s__ %s;\0A\00", align 1
@.str.28 = private unnamed_addr constant [9 x i8] c"%s %s__\0A\00", align 1
@.str.29 = private unnamed_addr constant [3 x i8] c"{\0A\00", align 1
@.str.68 = private unnamed_addr constant [6 x i8] c"union\00", align 1
@.str.69 = private unnamed_addr constant [7 x i8] c"struct\00", align 1
@.str.70 = private unnamed_addr constant [10 x i8] c" %s[%d];\0A\00", align 1
@__func__.header_gen_members = private unnamed_addr constant [19 x i8] c"header_gen_members\00", align 1
@.str.71 = private unnamed_addr constant [4 x i8] c"%s\0A\00", align 1

; Function Attrs: nounwind uwtable
define internal ptr @struct_union_str(ptr noundef %0) #0 {
  %2 = alloca ptr, align 8
  store ptr %0, ptr %2, align 8
  %3 = load ptr, ptr %2, align 8
  %4 = getelementptr inbounds %struct.Decl_, ptr %3, i32 0, i32 3
  %5 = load i64, ptr %4, align 8
  %6 = and i64 %5, 127
  %7 = trunc i64 %6 to i32
  %8 = icmp eq i32 %7, 25
  %9 = select i1 %8, ptr @.str.68, ptr @.str.69
  ret ptr %9
}

; Function Attrs: nounwind uwtable
define internal void @header_gen_struct_union(ptr noundef %0, i32 noundef %1, ptr noundef %2) #0 {
  %4 = alloca ptr, align 8
  %5 = alloca i32, align 4
  %6 = alloca ptr, align 8
  store ptr %0, ptr %4, align 8
  store i32 %1, ptr %5, align 4
  store ptr %2, ptr %6, align 8
  %7 = load i32, ptr %5, align 4
  %8 = icmp ne i32 %7, 0
  br i1 %8, label %18, label %9

9:                                                ; preds = %3
  %10 = load ptr, ptr %4, align 8
  %11 = load ptr, ptr %6, align 8
  %12 = getelementptr inbounds %struct.Decl_, ptr %11, i32 0, i32 1
  %13 = load ptr, ptr %12, align 8
  %14 = load ptr, ptr %6, align 8
  %15 = getelementptr inbounds %struct.Decl_, ptr %14, i32 0, i32 1
  %16 = load ptr, ptr %15, align 8
  %17 = call i32 (ptr, ptr, ...) @fprintf(ptr noundef %10, ptr noundef @.str.27, ptr noundef %13, ptr noundef %16) #5
  br label %18

18:                                               ; preds = %9, %3
  %19 = load ptr, ptr %4, align 8
  %20 = load i32, ptr %5, align 4
  call void @indent_line(ptr noundef %19, i32 noundef %20)
  %21 = load ptr, ptr %6, align 8
  %22 = getelementptr inbounds %struct.Decl_, ptr %21, i32 0, i32 0
  %23 = load ptr, ptr %22, align 8
  %24 = icmp ne ptr %23, null
  br i1 %24, label %25, label %33

25:                                               ; preds = %18
  %26 = load ptr, ptr %4, align 8
  %27 = load ptr, ptr %6, align 8
  %28 = call ptr @struct_union_str(ptr noundef %27)
  %29 = load ptr, ptr %6, align 8
  %30 = getelementptr inbounds %struct.Decl_, ptr %29, i32 0, i32 1
  %31 = load ptr, ptr %30, align 8
  %32 = call i32 (ptr, ptr, ...) @fprintf(ptr noundef %26, ptr noundef @.str.28, ptr noundef %28, ptr noundef %31) #5
  br label %38

33:                                               ; preds = %18
  %34 = load ptr, ptr %4, align 8
  %35 = load ptr, ptr %6, align 8
  %36 = call ptr @struct_union_str(ptr noundef %35)
  %37 = call i32 (ptr, ptr, ...) @fprintf(ptr noundef %34, ptr noundef @.str.71, ptr noundef %36) #5
  br label %38

38:                                               ; preds = %33, %25
  %39 = load ptr, ptr %4, align 8
  %40 = load i32, ptr %5, align 4
  call void @indent_line(ptr noundef %39, i32 noundef %40)
  %41 = load ptr, ptr %4, align 8
  %42 = call i32 (ptr, ptr, ...) @fprintf(ptr noundef %41, ptr noundef @.str.29) #5
  %43 = load ptr, ptr %4, align 8
  %44 = load i32, ptr %5, align 4
  %45 = add nsw i32 %44, 1
  %46 = load ptr, ptr %6, align 8
  %47 = getelementptr inbounds %struct.Decl_, ptr %46, i32 0, i32 11
  %48 = getelementptr inbounds %struct.anon.2, ptr %47, i32 0, i32 2
  %49 = getelementptr inbounds %struct.StructDecl, ptr %48, i32 0, i32 1
  %50 = load ptr, ptr %49, align 8
  call void @header_gen_members(ptr noundef %43, i32 noundef %45, ptr noundef %50)
  %51 = load ptr, ptr %4, align 8
  %52 = load i32, ptr %5, align 4
  call void @indent_line(ptr noundef %51, i32 noundef %52)
  %53 = load ptr, ptr %4, align 8
  %54 = call i32 (ptr, ptr, ...) @fprintf(ptr noundef %53, ptr noundef @.str.23) #5
  ret void
}

; Function Attrs: nounwind uwtable
define internal void @indent_line(ptr noundef %0, i32 noundef %1) #0 {
  %3 = alloca ptr, align 8
  %4 = alloca i32, align 4
  %5 = alloca i32, align 4
  store ptr %0, ptr %3, align 8
  store i32 %1, ptr %4, align 4
  store i32 0, ptr %5, align 4
  br label %6

6:                                                ; preds = %13, %2
  %7 = load i32, ptr %5, align 4
  %8 = load i32, ptr %4, align 4
  %9 = icmp slt i32 %7, %8
  br i1 %9, label %10, label %16

10:                                               ; preds = %6
  %11 = load ptr, ptr %3, align 8
  %12 = call i32 @fputc(i32 noundef 9, ptr noundef %11)
  br label %13

13:                                               ; preds = %10
  %14 = load i32, ptr %5, align 4
  %15 = add nsw i32 %14, 1
  store i32 %15, ptr %5, align 4
  br label %6, !llvm.loop !32

16:                                               ; preds = %6
  ret void
}

; Function Attrs: nounwind uwtable
define internal void @header_gen_members(ptr noundef %0, i32 noundef %1, ptr noundef %2) #0 {
  %4 = alloca i32, align 4
  %5 = alloca ptr, align 8
  %6 = alloca ptr, align 8
  %7 = alloca ptr, align 8
  %8 = alloca i32, align 4
  %9 = alloca ptr, align 8
  %10 = alloca i32, align 4
  %11 = alloca i32, align 4
  %12 = alloca ptr, align 8
  store ptr %0, ptr %7, align 8
  store i32 %1, ptr %8, align 4
  store ptr %2, ptr %9, align 8
  store i32 0, ptr %10, align 4
  %13 = load ptr, ptr %9, align 8
  store ptr %13, ptr %5, align 8
  %14 = load ptr, ptr %5, align 8
  %15 = icmp ne ptr %14, null
  br i1 %15, label %17, label %16

16:                                               ; preds = %3
  store i32 0, ptr %4, align 4
  br label %22

17:                                               ; preds = %3
  %18 = load ptr, ptr %5, align 8
  store ptr %18, ptr %6, align 8
  %19 = load ptr, ptr %6, align 8
  %20 = getelementptr inbounds %struct.VHeader_, ptr %19, i64 -1
  %21 = load i32, ptr %20, align 4
  store i32 %21, ptr %4, align 4
  br label %22

22:                                               ; preds = %17, %16
  %23 = load i32, ptr %4, align 4
  store i32 %23, ptr %11, align 4
  br label %24

24:                                               ; preds = %91, %22
  %25 = load i32, ptr %10, align 4
  %26 = load i32, ptr %11, align 4
  %27 = icmp ult i32 %25, %26
  br i1 %27, label %28, label %94

28:                                               ; preds = %24
  %29 = load ptr, ptr %9, align 8
  %30 = load i32, ptr %10, align 4
  %31 = zext i32 %30 to i64
  %32 = getelementptr inbounds ptr, ptr %29, i64 %31
  %33 = load ptr, ptr %32, align 8
  store ptr %33, ptr %12, align 8
  %34 = load ptr, ptr %12, align 8
  %35 = getelementptr inbounds %struct.Decl_, ptr %34, i32 0, i32 3
  %36 = load i64, ptr %35, align 8
  %37 = and i64 %36, 127
  %38 = trunc i64 %37 to i32
  switch i32 %38, label %87 [
    i32 26, label %39
    i32 23, label %83
    i32 25, label %83
  ]

39:                                               ; preds = %28
  %40 = load ptr, ptr %7, align 8
  %41 = load i32, ptr %8, align 4
  call void @indent_line(ptr noundef %40, i32 noundef %41)
  %42 = load ptr, ptr %12, align 8
  %43 = getelementptr inbounds %struct.Decl_, ptr %42, i32 0, i32 10
  %44 = load ptr, ptr %43, align 8
  %45 = getelementptr inbounds %struct.Type_, ptr %44, i32 0, i32 1
  %46 = load ptr, ptr %45, align 8
  %47 = getelementptr inbounds %struct.Type_, ptr %46, i32 0, i32 0
  %48 = load i32, ptr %47, align 8
  %49 = icmp eq i32 %48, 33
  br i1 %49, label %50, label %73

50:                                               ; preds = %39
  %51 = load ptr, ptr %7, align 8
  %52 = load ptr, ptr %12, align 8
  %53 = getelementptr inbounds %struct.Decl_, ptr %52, i32 0, i32 10
  %54 = load ptr, ptr %53, align 8
  %55 = getelementptr inbounds %struct.Type_, ptr %54, i32 0, i32 1
  %56 = load ptr, ptr %55, align 8
  %57 = getelementptr inbounds %struct.Type_, ptr %56, i32 0, i32 7
  %58 = getelementptr inbounds %struct.TypeArray, ptr %57, i32 0, i32 0
  %59 = load ptr, ptr %58, align 8
  call void @header_print_type(ptr noundef %51, ptr noundef %59)
  %60 = load ptr, ptr %7, align 8
  %61 = load ptr, ptr %12, align 8
  %62 = getelementptr inbounds %struct.Decl_, ptr %61, i32 0, i32 0
  %63 = load ptr, ptr %62, align 8
  %64 = load ptr, ptr %12, align 8
  %65 = getelementptr inbounds %struct.Decl_, ptr %64, i32 0, i32 10
  %66 = load ptr, ptr %65, align 8
  %67 = getelementptr inbounds %struct.Type_, ptr %66, i32 0, i32 1
  %68 = load ptr, ptr %67, align 8
  %69 = getelementptr inbounds %struct.Type_, ptr %68, i32 0, i32 7
  %70 = getelementptr inbounds %struct.TypeArray, ptr %69, i32 0, i32 1
  %71 = load i32, ptr %70, align 8
  %72 = call i32 (ptr, ptr, ...) @fprintf(ptr noundef %60, ptr noundef @.str.70, ptr noundef %63, i32 noundef %71) #5
  br label %90

73:                                               ; preds = %39
  %74 = load ptr, ptr %7, align 8
  %75 = load ptr, ptr %12, align 8
  %76 = getelementptr inbounds %struct.Decl_, ptr %75, i32 0, i32 10
  %77 = load ptr, ptr %76, align 8
  call void @header_print_type(ptr noundef %74, ptr noundef %77)
  %78 = load ptr, ptr %7, align 8
  %79 = load ptr, ptr %12, align 8
  %80 = getelementptr inbounds %struct.Decl_, ptr %79, i32 0, i32 0
  %81 = load ptr, ptr %80, align 8
  %82 = call i32 (ptr, ptr, ...) @fprintf(ptr noundef %78, ptr noundef @.str.25, ptr noundef %81) #5
  br label %90

83:                                               ; preds = %28, %28
  %84 = load ptr, ptr %7, align 8
  %85 = load i32, ptr %8, align 4
  %86 = load ptr, ptr %12, align 8
  call void @header_gen_struct_union(ptr noundef %84, i32 noundef %85, ptr noundef %86)
  br label %90

87:                                               ; preds = %28
  br label %88

88:                                               ; preds = %87
  call void (ptr, ...) @error_exit(ptr noundef @.str, ptr noundef @.str.1, ptr noundef @__func__.header_gen_members, ptr noundef @.str.2, i32 noundef 261) #4
  unreachable

89:                                               ; No predecessors!
  br label %90

90:                                               ; preds = %89, %83, %73, %50
  br label %91

91:                                               ; preds = %90
  %92 = load i32, ptr %10, align 4
  %93 = add i32 %92, 1
  store i32 %93, ptr %10, align 4
  br label %24, !llvm.loop !31

94:                                               ; preds = %24
  ret void
}