; Function Attrs: nounwind uwtable
define internal fastcc void @header_gen_members(ptr noundef %0, i32 noundef %1, ptr noundef readonly %2) unnamed_addr #0 {
  %.not = icmp eq ptr %2, null
  br i1 %.not, label %._crit_edge, label %4

4:                                                ; preds = %3
  %5 = getelementptr inbounds i8, ptr %2, i64 -8
  %6 = load i32, ptr %5, align 4
  %.not40 = icmp eq i32 %6, 0
  br i1 %.not40, label %._crit_edge, label %.lr.ph

.lr.ph:                                           ; preds = %4
  %.not.i = icmp eq i32 %1, 0
  %7 = icmp sgt i32 %1, 0
  %8 = add nsw i32 %1, 1
  %wide.trip.count = zext i32 %6 to i64
  br label %9

9:                                                ; preds = %.lr.ph, %66
  %indvars.iv = phi i64 [ 0, %.lr.ph ], [ %indvars.iv.next, %66 ]
  %10 = getelementptr inbounds nuw ptr, ptr %2, i64 %indvars.iv
  %11 = load ptr, ptr %10, align 8
  %12 = getelementptr inbounds nuw i8, ptr %11, i64 24
  %13 = load i64, ptr %12, align 8
  %14 = trunc i64 %13 to i32
  %15 = and i32 %14, 127
  switch i32 %15, label %65 [
    i32 26, label %16
    i32 23, label %38
    i32 25, label %38
  ]

16:                                               ; preds = %9
  br i1 %7, label %.lr.ph.i, label %indent_line.exit

.lr.ph.i:                                         ; preds = %16, %.lr.ph.i
  %.03.i = phi i32 [ %18, %.lr.ph.i ], [ 0, %16 ]
  %17 = tail call i32 @fputc(i32 noundef 9, ptr noundef %0)
  %18 = add nuw nsw i32 %.03.i, 1
  %exitcond.not.i = icmp eq i32 %18, %1
  br i1 %exitcond.not.i, label %indent_line.exit, label %.lr.ph.i, !llvm.loop !31

indent_line.exit:                                 ; preds = %.lr.ph.i, %16
  %19 = getelementptr inbounds nuw i8, ptr %11, i64 72
  %20 = load ptr, ptr %19, align 8
  %21 = getelementptr inbounds nuw i8, ptr %20, i64 8
  %22 = load ptr, ptr %21, align 8
  %23 = load i32, ptr %22, align 8
  %24 = icmp eq i32 %23, 33
  br i1 %24, label %25, label %35

25:                                               ; preds = %indent_line.exit
  %26 = getelementptr inbounds nuw i8, ptr %22, i64 56
  %27 = load ptr, ptr %26, align 8
  tail call fastcc void @header_print_type(ptr noundef %0, ptr noundef %27)
  %28 = load ptr, ptr %11, align 8
  %29 = load ptr, ptr %19, align 8
  %30 = getelementptr inbounds nuw i8, ptr %29, i64 8
  %31 = load ptr, ptr %30, align 8
  %32 = getelementptr inbounds nuw i8, ptr %31, i64 64
  %33 = load i32, ptr %32, align 8
  %34 = tail call i32 (ptr, ptr, ...) @fprintf(ptr noundef %0, ptr noundef nonnull @.str.70, ptr noundef %28, i32 noundef %33) #6
  br label %66

35:                                               ; preds = %indent_line.exit
  tail call fastcc void @header_print_type(ptr noundef %0, ptr noundef nonnull %20)
  %36 = load ptr, ptr %11, align 8
  %37 = tail call i32 (ptr, ptr, ...) @fprintf(ptr noundef %0, ptr noundef nonnull @.str.25, ptr noundef %36) #6
  br label %66

38:                                               ; preds = %9, %9
  br i1 %.not.i, label %.split21.i, label %.split.i

.split.i:                                         ; preds = %38
  br i1 %7, label %.lr.ph.i35, label %indent_line.exit38

.lr.ph.i35:                                       ; preds = %.split.i, %.lr.ph.i35
  %.03.i36 = phi i32 [ %40, %.lr.ph.i35 ], [ 0, %.split.i ]
  %39 = tail call i32 @fputc(i32 noundef 9, ptr noundef %0)
  %40 = add nuw nsw i32 %.03.i36, 1
  %exitcond.not.i37 = icmp eq i32 %40, %1
  br i1 %exitcond.not.i37, label %indent_line.exit38, label %.lr.ph.i35, !llvm.loop !31

.split21.i:                                       ; preds = %38
  %41 = getelementptr inbounds nuw i8, ptr %11, i64 8
  %42 = load ptr, ptr %41, align 8
  %43 = tail call i32 (ptr, ptr, ...) @fprintf(ptr noundef %0, ptr noundef nonnull @.str.27, ptr noundef %42, ptr noundef %42) #6
  br label %indent_line.exit38

indent_line.exit38:                               ; preds = %.lr.ph.i35, %.split.i, %.split21.i
  %44 = load ptr, ptr %11, align 8
  %.not22.i = icmp eq ptr %44, null
  %.val.i = load i64, ptr %12, align 8
  %45 = and i64 %.val.i, 127
  %46 = icmp eq i64 %45, 25
  %47 = select i1 %46, ptr @.str.68, ptr @.str.69
  br i1 %.not22.i, label %52, label %48

48:                                               ; preds = %indent_line.exit38
  %49 = getelementptr inbounds nuw i8, ptr %11, i64 8
  %50 = load ptr, ptr %49, align 8
  %51 = tail call i32 (ptr, ptr, ...) @fprintf(ptr noundef %0, ptr noundef nonnull @.str.28, ptr noundef nonnull %47, ptr noundef %50) #6
  br label %header_gen_struct_union.exit

52:                                               ; preds = %indent_line.exit38
  %53 = tail call i32 (ptr, ptr, ...) @fprintf(ptr noundef %0, ptr noundef nonnull @.str.71, ptr noundef nonnull %47) #6
  br label %header_gen_struct_union.exit

header_gen_struct_union.exit:                     ; preds = %48, %52
  br i1 %7, label %.lr.ph.i31, label %indent_line.exit30.critedge

.lr.ph.i31:                                       ; preds = %header_gen_struct_union.exit, %.lr.ph.i31
  %.03.i32 = phi i32 [ %55, %.lr.ph.i31 ], [ 0, %header_gen_struct_union.exit ]
  %54 = tail call i32 @fputc(i32 noundef 9, ptr noundef %0)
  %55 = add nuw nsw i32 %.03.i32, 1
  %exitcond.not.i33 = icmp eq i32 %55, %1
  br i1 %exitcond.not.i33, label %indent_line.exit34, label %.lr.ph.i31, !llvm.loop !31

indent_line.exit34:                               ; preds = %.lr.ph.i31
  %56 = tail call i64 @fwrite(ptr nonnull @.str.29, i64 2, i64 1, ptr %0)
  %57 = getelementptr inbounds nuw i8, ptr %11, i64 104
  %58 = load ptr, ptr %57, align 8
  tail call fastcc void @header_gen_members(ptr noundef %0, i32 noundef %8, ptr noundef %58)
  br label %.lr.ph.i27

.lr.ph.i27:                                       ; preds = %indent_line.exit34, %.lr.ph.i27
  %.03.i28 = phi i32 [ %60, %.lr.ph.i27 ], [ 0, %indent_line.exit34 ]
  %59 = tail call i32 @fputc(i32 noundef 9, ptr noundef %0)
  %60 = add nuw nsw i32 %.03.i28, 1
  %exitcond.not.i29 = icmp eq i32 %60, %1
  br i1 %exitcond.not.i29, label %indent_line.exit30, label %.lr.ph.i27, !llvm.loop !31

indent_line.exit30.critedge:                      ; preds = %header_gen_struct_union.exit
  %61 = tail call i64 @fwrite(ptr nonnull @.str.29, i64 2, i64 1, ptr %0)
  %62 = getelementptr inbounds nuw i8, ptr %11, i64 104
  %63 = load ptr, ptr %62, align 8
  tail call fastcc void @header_gen_members(ptr noundef %0, i32 noundef %8, ptr noundef %63)
  br label %indent_line.exit30

indent_line.exit30:                               ; preds = %.lr.ph.i27, %indent_line.exit30.critedge
  %64 = tail call i64 @fwrite(ptr nonnull @.str.23, i64 3, i64 1, ptr %0)
  br label %66

65:                                               ; preds = %9
  tail call void (ptr, ...) @error_exit(ptr noundef nonnull @.str, ptr noundef nonnull @.str.1, ptr noundef nonnull @__func__.header_gen_members, ptr noundef nonnull @.str.2, i32 noundef 261) #5
  unreachable

66:                                               ; preds = %25, %35, %indent_line.exit30
  %indvars.iv.next = add nuw nsw i64 %indvars.iv, 1
  %exitcond.not = icmp eq i64 %indvars.iv.next, %wide.trip.count
  br i1 %exitcond.not, label %._crit_edge, label %9, !llvm.loop !32

._crit_edge:                                      ; preds = %66, %3, %4
  ret void
}